; Function Attrs: mustprogress uwtable
define dso_local noundef i32 @_ZN5ImGui12GetColumnsIDEPKci(ptr noundef %0, i32 noundef %1) local_unnamed_addr #0 {
  %3 = load ptr, ptr @GImGui, align 8, !tbaa !4
  %4 = getelementptr inbounds nuw i8, ptr %3, i64 4928
  %5 = load ptr, ptr %4, align 8, !tbaa !9
  %6 = getelementptr inbounds nuw i8, ptr %5, i64 204
  store i8 1, ptr %6, align 4, !tbaa !130
  %.not = icmp eq ptr %0, null
  %7 = add nsw i32 %1, 287454023
  %8 = select i1 %.not, i32 %7, i32 287454023
  tail call void @_ZN5ImGui6PushIDEi(i32 noundef %8)
  %9 = select i1 %.not, ptr @.str.41, ptr %0
  %10 = tail call noundef i32 @_ZN11ImGuiWindow5GetIDEPKcS1_(ptr noundef nonnull align 8 dereferenceable(1029) %5, ptr noundef nonnull %9, ptr noundef null)
  tail call void @_ZN5ImGui5PopIDEv()
  ret i32 %10
}